(dp0
S'Sarah'
p1
ccopy_reg
_reconstructor
p2
(cbean.athletelist
AthleteList
p3
c__builtin__
list
p4
(lp5
S'2:58'
p6
aS'2.58'
p7
aS'2:39'
p8
aS'2-25'
p9
aS'2:54'
p10
aS'2.18'
p11
aS'2:55'
p12
aS'2:55'
p13
aS'2-18'
p14
atp15
Rp16
(dp17
S'birthday'
p18
S'2001-08-17'
p19
sS'name'
p20
g1
sbsS'James'
p21
g2
(g3
g4
(lp22
S'2-34'
p23
aS'3:21'
p24
aS'2.34'
p25
aS'2.45'
p26
aS'3.01'
p27
aS'2.01'
p28
aS'3:10'
p29
aS'2-22'
p30
aS'2:22'
p31
atp32
Rp33
(dp34
g18
S'2002-01-02'
p35
sg20
g21
sbsS'Julie'
p36
g2
(g3
g4
(lp37
S'2.59'
p38
aS'2.11'
p39
aS'2:11'
p40
aS'2:23'
p41
aS'3-10'
p42
aS'2-23'
p43
aS'3:30'
p44
aS'3.21'
p45
aS'3-21'
p46
atp47
Rp48
(dp49
g18
S'2003-12-30'
p50
sg20
g36
sbsS'Mikey'
p51
g2
(g3
g4
(lp52
S'2:22'
p53
aS'3.01'
p54
aS'3:01'
p55
aS'3.02'
p56
aS'3:02'
p57
aS'3.02'
p58
aS'3:22'
p59
aS'2.49'
p60
aS'2:38'
p61
atp62
Rp63
(dp64
g18
S'2004-03-22'
p65
sg20
g51
sbs.